; Function Attrs: mustprogress nofree norecurse nosync nounwind willreturn memory(argmem: readwrite) uwtable
define dso_local void @_ZN23btPoint2PointConstraint8getInfo1EPN17btTypedConstraint17btConstraintInfo1E(ptr nocapture noundef nonnull readonly align 8 dereferenceable(384) %this, ptr nocapture noundef writeonly %info) unnamed_addr #6 align 2 {
entry:
  %m_useSolveConstraintObsolete.i = getelementptr inbounds i8, ptr %this, i64 368
  %0 = load i8, ptr %m_useSolveConstraintObsolete.i, align 8
  %1 = and i8 %0, 1
  %tobool.not.i = icmp eq i8 %1, 0
  %spec.select.i = select i1 %tobool.not.i, i32 3, i32 0
  store i32 %spec.select.i, ptr %info, align 4
  %2 = getelementptr inbounds i8, ptr %info, i64 4
  store i32 %spec.select.i, ptr %2, align 4
  ret void
}